target datalayout = "e-m:e-p270:32:32-p271:32:32-p272:64:64-i64:64-i128:128-f80:128-n8:16:32:64-S128"
target triple = "x86_64-pc-linux-gnu"

%"class.sat::literal" = type { i32 }
%"class.pb::pbc" = type <{ %"class.pb::constraint", i32, i32, i32, [0 x %"struct.std::pair"], [4 x i8] }>
%"class.pb::constraint" = type { ptr, i32, i8, %"class.sat::literal", %"class.sat::literal", i32, i32, i32, i64, i8, i32, i8, i32 }
%"struct.std::pair" = type { i32, %"class.sat::literal" }

@_ZN3sat12null_literalE = linkonce_odr hidden constant %"class.sat::literal" { i32 -2 }, comdat, align 4

; Function Attrs: mustprogress nounwind uwtable
define linkonce_odr hidden void @_ZN2pb3pbc13set_num_watchEj(ptr noundef nonnull align 8 dereferenceable(76) %0, i32 noundef %1) #4 comdat align 2 {
  %3 = alloca ptr, align 8
  %4 = alloca i32, align 4
  store ptr %0, ptr %3, align 8, !tbaa !8
  store i32 %1, ptr %4, align 4, !tbaa !10
  %5 = load ptr, ptr %3, align 8
  %6 = load i32, ptr %4, align 4, !tbaa !10
  %7 = getelementptr inbounds nuw %"class.pb::pbc", ptr %5, i32 0, i32 2
  store i32 %6, ptr %7, align 4, !tbaa !24
  ret void
}

; Function Attrs: mustprogress nounwind uwtable
define linkonce_odr hidden noundef nonnull align 4 dereferenceable(8) ptr @_ZN2pb3pbcixEj(ptr noundef nonnull align 8 dereferenceable(76) %0, i32 noundef %1) #4 comdat align 2 {
  %3 = alloca ptr, align 8
  %4 = alloca i32, align 4
  store ptr %0, ptr %3, align 8, !tbaa !8
  store i32 %1, ptr %4, align 4, !tbaa !10
  %5 = load ptr, ptr %3, align 8
  %6 = getelementptr inbounds nuw %"class.pb::pbc", ptr %5, i32 0, i32 4
  %7 = load i32, ptr %4, align 4, !tbaa !10
  %8 = zext i32 %7 to i64
  %9 = getelementptr inbounds nuw [0 x %"struct.std::pair"], ptr %6, i64 0, i64 %8
  ret ptr %9
}

; Function Attrs: mustprogress nounwind uwtable
define linkonce_odr hidden noundef i32 @_ZNK2pb3pbc9num_watchEv(ptr noundef nonnull align 8 dereferenceable(76) %0) #4 comdat align 2 {
  %2 = alloca ptr, align 8
  store ptr %0, ptr %2, align 8, !tbaa !8
  %3 = load ptr, ptr %2, align 8
  %4 = getelementptr inbounds nuw %"class.pb::pbc", ptr %3, i32 0, i32 2
  %5 = load i32, ptr %4, align 4, !tbaa !24
  ret i32 %5
}

; Function Attrs: mustprogress nounwind uwtable
define linkonce_odr hidden void @_ZN2pb10constraint11reset_watchEv(ptr noundef nonnull align 8 dereferenceable(64) %0) #4 comdat align 2 {
  %2 = alloca ptr, align 8
  store ptr %0, ptr %2, align 8, !tbaa !3
  %3 = load ptr, ptr %2, align 8
  %4 = getelementptr inbounds nuw %"class.pb::constraint", ptr %3, i32 0, i32 4
  call void @llvm.memcpy.p0.p0.i64(ptr align 4 %4, ptr align 4 @_ZN3sat12null_literalE, i64 4, i1 false), !tbaa.struct !14
  ret void
}

; Function Attrs: mustprogress uwtable
define hidden void @_ZN2pb3pbc11clear_watchERNS_16solver_interfaceE(ptr noundef nonnull align 8 dereferenceable(76) %0, ptr noundef nonnull align 8 dereferenceable(8) %1) unnamed_addr #5 align 2 {
  %3 = alloca ptr, align 8
  %4 = alloca ptr, align 8
  %5 = alloca i32, align 4
  %6 = alloca %"class.sat::literal", align 4
  store ptr %0, ptr %3, align 8, !tbaa !8
  store ptr %1, ptr %4, align 8, !tbaa !65
  %7 = load ptr, ptr %3, align 8
  call void @_ZN2pb10constraint11reset_watchEv(ptr noundef nonnull align 8 dereferenceable(64) %7)
  call void @llvm.lifetime.start.p0(i64 4, ptr %5) #3
  store i32 0, ptr %5, align 4, !tbaa !10
  br label %8

8:                                                ; preds = %20, %2
  %9 = load i32, ptr %5, align 4, !tbaa !10
  %10 = call noundef i32 @_ZNK2pb3pbc9num_watchEv(ptr noundef nonnull align 8 dereferenceable(76) %7)
  %11 = icmp ult i32 %9, %10
  br i1 %11, label %13, label %12

12:                                               ; preds = %8
  call void @llvm.lifetime.end.p0(i64 4, ptr %5) #3
  br label %23

13:                                               ; preds = %8
  %14 = load ptr, ptr %4, align 8, !tbaa !65
  %15 = load i32, ptr %5, align 4, !tbaa !10
  %16 = call noundef nonnull align 4 dereferenceable(8) ptr @_ZN2pb3pbcixEj(ptr noundef nonnull align 8 dereferenceable(76) %7, i32 noundef %15)
  %17 = getelementptr inbounds nuw %"struct.std::pair", ptr %16, i32 0, i32 1
  call void @llvm.memcpy.p0.p0.i64(ptr align 4 %6, ptr align 4 %17, i64 4, i1 false), !tbaa.struct !14
  %18 = getelementptr inbounds nuw %"class.sat::literal", ptr %6, i32 0, i32 0
  %19 = load i32, ptr %18, align 4
  call void @_ZN2pb10constraint15unwatch_literalERNS_16solver_interfaceEN3sat7literalE(ptr noundef nonnull align 8 dereferenceable(64) %7, ptr noundef nonnull align 8 dereferenceable(8) %14, i32 %19)
  br label %20

20:                                               ; preds = %13
  %21 = load i32, ptr %5, align 4, !tbaa !10
  %22 = add i32 %21, 1
  store i32 %22, ptr %5, align 4, !tbaa !10
  br label %8, !llvm.loop !87

23:                                               ; preds = %12
  call void @_ZN2pb3pbc13set_num_watchEj(ptr noundef nonnull align 8 dereferenceable(76) %7, i32 noundef 0)
  ret void
}