; Function Attrs: mustprogress uwtable
define hidden void @_ZN2pb3pbc11clear_watchERNS_16solver_interfaceE(ptr noundef nonnull align 8 dereferenceable(76) initializes((20, 24)) %0, ptr noundef nonnull align 8 dereferenceable(8) %1) unnamed_addr #4 align 2 {
  %3 = getelementptr inbounds nuw i8, ptr %0, i64 20
  store i32 -2, ptr %3, align 4, !tbaa !9
  %4 = getelementptr inbounds nuw i8, ptr %0, i64 68
  %5 = load i32, ptr %4, align 4, !tbaa !30
  %.not = icmp eq i32 %5, 0
  br i1 %.not, label %._crit_edge, label %.lr.ph

.lr.ph:                                           ; preds = %2
  %6 = getelementptr i8, ptr %0, i64 80
  br label %7

._crit_edge:                                      ; preds = %7, %2
  store i32 0, ptr %4, align 4, !tbaa !30
  ret void

7:                                                ; preds = %.lr.ph, %7
  %indvars.iv = phi i64 [ 0, %.lr.ph ], [ %indvars.iv.next, %7 ]
  %.idx = shl nuw nsw i64 %indvars.iv, 3
  %8 = getelementptr i8, ptr %6, i64 %.idx
  %.sroa.0.0.copyload = load i32, ptr %8, align 8, !tbaa !9
  tail call void @_ZN2pb10constraint15unwatch_literalERNS_16solver_interfaceEN3sat7literalE(ptr noundef nonnull align 8 dereferenceable(64) %0, ptr noundef nonnull align 8 dereferenceable(8) %1, i32 %.sroa.0.0.copyload)
  %indvars.iv.next = add nuw nsw i64 %indvars.iv, 1
  %9 = load i32, ptr %4, align 4, !tbaa !30
  %10 = zext i32 %9 to i64
  %11 = icmp samesign ult i64 %indvars.iv.next, %10
  br i1 %11, label %7, label %._crit_edge, !llvm.loop !63
}